target datalayout = "e-m:e-p270:32:32-p271:32:32-p272:64:64-i64:64-i128:128-f80:128-n8:16:32:64-S128"
target triple = "x86_64-pc-linux-gnu"

@.str = private unnamed_addr constant [30 x i8] c"unable to get a number of CPU\00", align 1
@.str.1 = private unnamed_addr constant [35 x i8] c"unable to create devices namespace\00", align 1

; Function Attrs: nounwind uwtable
define dso_local i32 @task_cgroup_devices_init() #0 {
  %1 = alloca i32, align 4
  %2 = alloca i16, align 2
  %3 = alloca i32, align 4
  call void @llvm.lifetime.start.p0(i64 2, ptr %2) #5
  %4 = call i32 @xcpuinfo_init()
  %5 = icmp ne i32 %4, 0
  br i1 %5, label %6, label %7

6:                                                ; preds = %0
  store i32 -1, ptr %1, align 4
  store i32 1, ptr %3, align 4
  br label %20

7:                                                ; preds = %0
  %8 = call i32 @get_procs(ptr noundef %2)
  %9 = icmp ne i32 %8, 0
  br i1 %9, label %10, label %12

10:                                               ; preds = %7
  %11 = call i32 (ptr, ...) @error(ptr noundef @.str)
  br label %18

12:                                               ; preds = %7
  %13 = call i32 @cgroup_g_initialize(i32 noundef 3)
  %14 = icmp ne i32 %13, 0
  br i1 %14, label %15, label %17

15:                                               ; preds = %12
  %16 = call i32 (ptr, ...) @error(ptr noundef @.str.1)
  br label %18

17:                                               ; preds = %12
  store i32 0, ptr %1, align 4
  store i32 1, ptr %3, align 4
  br label %20

18:                                               ; preds = %15, %10
  %19 = call i32 @xcpuinfo_fini()
  store i32 -1, ptr %1, align 4
  store i32 1, ptr %3, align 4
  br label %20

20:                                               ; preds = %18, %17, %6
  call void @llvm.lifetime.end.p0(i64 2, ptr %2) #5
  %21 = load i32, ptr %1, align 4
  ret i32 %21
}