; Function Attrs: nounwind uwtable
define dso_local range(i32 -1, 1) i32 @task_cgroup_devices_init() local_unnamed_addr #0 {
  %1 = alloca i16, align 2
  call void @llvm.lifetime.start.p0(i64 2, ptr nonnull %1) #5
  %2 = tail call i32 @xcpuinfo_init() #5
  %.not = icmp eq i32 %2, 0
  br i1 %.not, label %3, label %10

3:                                                ; preds = %0
  %4 = call i32 @get_procs(ptr noundef nonnull %1) #5
  %.not1 = icmp eq i32 %4, 0
  br i1 %.not1, label %5, label %7

5:                                                ; preds = %3
  %6 = call i32 @cgroup_g_initialize(i32 noundef 3) #5
  %.not2 = icmp eq i32 %6, 0
  br i1 %.not2, label %10, label %7

7:                                                ; preds = %5, %3
  %.str.1.sink = phi ptr [ @.str, %3 ], [ @.str.1, %5 ]
  %8 = call i32 (ptr, ...) @error(ptr noundef nonnull %.str.1.sink) #5
  %9 = call i32 @xcpuinfo_fini() #5
  br label %10

10:                                               ; preds = %5, %0, %7
  %.0 = phi i32 [ -1, %7 ], [ -1, %0 ], [ 0, %5 ]
  call void @llvm.lifetime.end.p0(i64 2, ptr nonnull %1) #5
  ret i32 %.0
}